target datalayout = "e-m:e-p270:32:32-p271:32:32-p272:64:64-i64:64-i128:128-f80:128-n8:16:32:64-S128"
target triple = "x86_64-pc-linux-gnu"

%class.GraphKit = type <{ ptr, %class.Phase, ptr, ptr, ptr, ptr, i32, [4 x i8], ptr, ptr, i32, [4 x i8] }>
%class.Phase = type { i32, ptr }
%class.Compile = type <{ %class.Phase, i32, %class.Options, [4 x i8], ptr, i32, [4 x i8], ptr, ptr, ptr, ptr, ptr, i32, i32, i32, [4 x i8], i64, i8, i8, [2 x i8], i32, i8, i8, i8, i8, i8, i8, i8, i8, i8, [3 x i8], i32, i8, [3 x i8], [30 x i32], i8, [3 x i8], i32, i8, i8, i8, i8, i8, i8, i8, i8, i8, i8, i8, i8, i8, [3 x i8], i32, i32, [4 x i8], %class.Arena, ptr, ptr, ptr, ptr, %class.CHeapStringHolder, ptr, %class.GrowableArray, %class.GrowableArray.0, %class.GrowableArray.3, %class.GrowableArray.0, %class.GrowableArray.0, %class.GrowableArray.0, %class.GrowableArray.6, %class.GrowableArray.9, ptr, i32, i32, %class.VectorSet, %class.Arena, %class.Arena, ptr, ptr, ptr, ptr, ptr, ptr, ptr, ptr, ptr, %class.Arena, ptr, ptr, %class.CloneMap, i64, ptr, ptr, ptr, i32, i32, [64 x %"struct.Compile::AliasCacheEntry"], ptr, ptr, ptr, ptr, %class.GrowableArray, %class.GrowableArray, %class.GrowableArray, %class.GrowableArray, i32, i32, i8, [7 x i8], ptr, ptr, i32, [4 x i8], ptr, ptr, ptr, i32, i32, ptr, ptr, %class.RegMask, ptr, ptr, i32, [4 x i8], ptr, %class.TimeInstant, i32, [4 x i8] }>
%class.Options = type { i8, i8, i8, i8, i8, i8, i8, i8 }
%class.CHeapStringHolder = type { ptr }
%class.GrowableArray.3 = type { %class.GrowableArrayWithAllocator.4, %class.GrowableArrayMetadata }
%class.GrowableArrayWithAllocator.4 = type { %class.GrowableArrayView.5 }
%class.GrowableArrayView.5 = type { %class.GrowableArrayBase, ptr }
%class.GrowableArrayBase = type { i32, i32 }
%class.GrowableArrayMetadata = type { i64 }
%class.GrowableArray.0 = type { %class.GrowableArrayWithAllocator.1, %class.GrowableArrayMetadata }
%class.GrowableArrayWithAllocator.1 = type { %class.GrowableArrayView.2 }
%class.GrowableArrayView.2 = type { %class.GrowableArrayBase, ptr }
%class.GrowableArray.6 = type { %class.GrowableArrayWithAllocator.7, %class.GrowableArrayMetadata }
%class.GrowableArrayWithAllocator.7 = type { %class.GrowableArrayView.8 }
%class.GrowableArrayView.8 = type { %class.GrowableArrayBase, ptr }
%class.GrowableArray.9 = type { %class.GrowableArrayWithAllocator.10, %class.GrowableArrayMetadata }
%class.GrowableArrayWithAllocator.10 = type { %class.GrowableArrayView.11 }
%class.GrowableArrayView.11 = type { %class.GrowableArrayBase, ptr }
%class.VectorSet = type { i32, ptr, i32, ptr }
%class.Arena = type { i8, i8, i64, ptr, ptr, ptr, ptr }
%class.CloneMap = type <{ i8, [7 x i8], ptr, i32, [4 x i8] }>
%"struct.Compile::AliasCacheEntry" = type { ptr, i32 }
%class.GrowableArray = type { %class.GrowableArrayWithAllocator, %class.GrowableArrayMetadata }
%class.GrowableArrayWithAllocator = type { %class.GrowableArrayView }
%class.GrowableArrayView = type { %class.GrowableArrayBase, ptr }
%class.RegMask = type { %union.anon, i32, i32 }
%union.anon = type { [11 x i64] }
%class.TimeInstant = type { %class.CompositeCounterRepresentation }
%class.CompositeCounterRepresentation = type { %class.Representation }
%class.Representation = type { %class.PairRep }
%class.PairRep = type { i64, i64 }
%class.Node = type <{ ptr, ptr, ptr, i32, i32, i32, i32, i32, i32, i32, [4 x i8] }>
%class.C2AccessValuePtr = type { %class.C2AccessValue }
%class.C2AccessValue = type { ptr, ptr }
%class.C2ParseAccess = type { %class.C2Access.base, ptr }
%class.C2Access.base = type <{ ptr, i64, i8, [7 x i8], ptr, ptr, ptr, i8 }>
%class.C2Access = type <{ ptr, i64, i8, [7 x i8], ptr, ptr, ptr, i8, [7 x i8] }>
%class.TypeAryPtr = type <{ %class.TypeOopPtr, ptr, i8, [7 x i8] }>
%class.TypeOopPtr = type { %class.TypePtr.base, ptr, ptr, ptr, i8, i8, i8, i8, i32 }
%class.TypePtr.base = type <{ %class.Type.base, [4 x i8], ptr, i32, i32, i32 }>
%class.Type.base = type <{ ptr, ptr, i32 }>
%class.TypeAry = type <{ %class.Type.base, [4 x i8], ptr, ptr, i8, [7 x i8] }>

@_ZTV13C2ParseAccess = external unnamed_addr constant { [6 x ptr] }, align 8
@_ZTV8C2Access = linkonce_odr hidden unnamed_addr constant { [6 x ptr] } { [6 x ptr] [ptr null, ptr null, ptr @_ZN8C2Access10set_memoryEv, ptr @__cxa_pure_virtual, ptr @_ZNK8C2Access15is_parse_accessEv, ptr @_ZNK8C2Access13is_opt_accessEv] }, comdat, align 8

; Function Attrs: mustprogress nounwind uwtable
define linkonce_odr hidden noundef ptr @_ZNK4Node2inEj(ptr noundef nonnull align 8 dereferenceable(52) %0, i32 noundef %1) #1 comdat align 2 {
  %3 = alloca ptr, align 8
  %4 = alloca i32, align 4
  store ptr %0, ptr %3, align 8
  store i32 %1, ptr %4, align 4
  %5 = load ptr, ptr %3, align 8
  %6 = getelementptr inbounds %class.Node, ptr %5, i32 0, i32 1
  %7 = load ptr, ptr %6, align 8
  %8 = load i32, ptr %4, align 4
  %9 = zext i32 %8 to i64
  %10 = getelementptr inbounds ptr, ptr %7, i64 %9
  %11 = load ptr, ptr %10, align 8
  ret ptr %11
}

; Function Attrs: mustprogress nounwind uwtable
define linkonce_odr hidden noundef ptr @_ZNK13SafePointNode7controlEv(ptr noundef nonnull align 8 dereferenceable(81) %0) #1 comdat align 2 {
  %2 = alloca ptr, align 8
  store ptr %0, ptr %2, align 8
  %3 = load ptr, ptr %2, align 8
  %4 = call noundef ptr @_ZNK4Node2inEj(ptr noundef nonnull align 8 dereferenceable(52) %3, i32 noundef 0)
  ret ptr %4
}

; Function Attrs: mustprogress nounwind uwtable
define linkonce_odr hidden noundef ptr @_ZNK8GraphKit12map_not_nullEv(ptr noundef nonnull align 8 dereferenceable(84) %0) #1 comdat align 2 {
  %2 = alloca ptr, align 8
  store ptr %0, ptr %2, align 8
  %3 = load ptr, ptr %2, align 8
  %4 = getelementptr inbounds %class.GraphKit, ptr %3, i32 0, i32 4
  %5 = load ptr, ptr %4, align 8
  ret ptr %5
}

; Function Attrs: mustprogress nounwind uwtable
define linkonce_odr hidden void @_ZN8C2AccessC2Em9BasicTypeP4NodeR16C2AccessValuePtr(ptr noundef nonnull align 8 dereferenceable(49) %0, i64 noundef %1, i8 noundef zeroext %2, ptr noundef %3, ptr noundef nonnull align 8 dereferenceable(16) %4) unnamed_addr #1 comdat align 2 {
  %6 = alloca ptr, align 8
  %7 = alloca i64, align 8
  %8 = alloca i8, align 1
  %9 = alloca ptr, align 8
  %10 = alloca ptr, align 8
  store ptr %0, ptr %6, align 8
  store i64 %1, ptr %7, align 8
  store i8 %2, ptr %8, align 1
  store ptr %3, ptr %9, align 8
  store ptr %4, ptr %10, align 8
  %11 = load ptr, ptr %6, align 8
  store ptr getelementptr inbounds inrange(-16, 32) ({ [6 x ptr] }, ptr @_ZTV8C2Access, i32 0, i32 0, i32 2), ptr %11, align 8
  %12 = getelementptr inbounds %class.C2Access, ptr %11, i32 0, i32 1
  %13 = load i64, ptr %7, align 8
  store i64 %13, ptr %12, align 8
  %14 = getelementptr inbounds %class.C2Access, ptr %11, i32 0, i32 2
  %15 = load i8, ptr %8, align 1
  store i8 %15, ptr %14, align 8
  %16 = getelementptr inbounds %class.C2Access, ptr %11, i32 0, i32 4
  %17 = load ptr, ptr %9, align 8
  store ptr %17, ptr %16, align 8
  %18 = getelementptr inbounds %class.C2Access, ptr %11, i32 0, i32 5
  %19 = load ptr, ptr %10, align 8
  store ptr %19, ptr %18, align 8
  %20 = getelementptr inbounds %class.C2Access, ptr %11, i32 0, i32 6
  store ptr null, ptr %20, align 8
  %21 = getelementptr inbounds %class.C2Access, ptr %11, i32 0, i32 7
  store i8 0, ptr %21, align 8
  ret void
}

; Function Attrs: mustprogress nounwind uwtable
define linkonce_odr hidden void @_ZN13C2AccessValueC2EP4NodePK4Type(ptr noundef nonnull align 8 dereferenceable(16) %0, ptr noundef %1, ptr noundef %2) unnamed_addr #1 comdat align 2 {
  %4 = alloca ptr, align 8
  %5 = alloca ptr, align 8
  %6 = alloca ptr, align 8
  store ptr %0, ptr %4, align 8
  store ptr %1, ptr %5, align 8
  store ptr %2, ptr %6, align 8
  %7 = load ptr, ptr %4, align 8
  %8 = getelementptr inbounds %class.C2AccessValue, ptr %7, i32 0, i32 0
  %9 = load ptr, ptr %5, align 8
  store ptr %9, ptr %8, align 8
  %10 = getelementptr inbounds %class.C2AccessValue, ptr %7, i32 0, i32 1
  %11 = load ptr, ptr %6, align 8
  store ptr %11, ptr %10, align 8
  ret void
}

; Function Attrs: mustprogress nounwind uwtable
define linkonce_odr hidden noundef ptr @_ZNK7Compile3topEv(ptr noundef nonnull align 8 dereferenceable(2316) %0) #1 comdat align 2 {
  %2 = alloca ptr, align 8
  store ptr %0, ptr %2, align 8
  %3 = load ptr, ptr %2, align 8
  %4 = getelementptr inbounds %class.Compile, ptr %3, i32 0, i32 78
  %5 = load ptr, ptr %4, align 8
  ret ptr %5
}

; Function Attrs: mustprogress nounwind uwtable
define linkonce_odr hidden noundef ptr @_ZNK8GraphKit7controlEv(ptr noundef nonnull align 8 dereferenceable(84) %0) #1 comdat align 2 {
  %2 = alloca ptr, align 8
  store ptr %0, ptr %2, align 8
  %3 = load ptr, ptr %2, align 8
  %4 = call noundef ptr @_ZNK8GraphKit12map_not_nullEv(ptr noundef nonnull align 8 dereferenceable(84) %3)
  %5 = call noundef ptr @_ZNK13SafePointNode7controlEv(ptr noundef nonnull align 8 dereferenceable(81) %4)
  ret ptr %5
}

; Function Attrs: mustprogress nounwind uwtable
define linkonce_odr hidden noundef ptr @_ZNK8GraphKit3mapEv(ptr noundef nonnull align 8 dereferenceable(84) %0) #1 comdat align 2 {
  %2 = alloca ptr, align 8
  store ptr %0, ptr %2, align 8
  %3 = load ptr, ptr %2, align 8
  %4 = getelementptr inbounds %class.GraphKit, ptr %3, i32 0, i32 4
  %5 = load ptr, ptr %4, align 8
  ret ptr %5
}

; Function Attrs: mustprogress nounwind uwtable
define linkonce_odr hidden noundef zeroext i1 @_ZNK8C2Access6is_rawEv(ptr noundef nonnull align 8 dereferenceable(49) %0) #1 comdat align 2 {
  %2 = alloca ptr, align 8
  store ptr %0, ptr %2, align 8
  %3 = load ptr, ptr %2, align 8
  %4 = getelementptr inbounds %class.C2Access, ptr %3, i32 0, i32 1
  %5 = load i64, ptr %4, align 8
  %6 = and i64 %5, 2048
  %7 = icmp ne i64 %6, 0
  ret i1 %7
}

; Function Attrs: mustprogress nounwind uwtable
define linkonce_odr hidden void @_ZN13C2ParseAccessC2EP8GraphKitm9BasicTypeP4NodeR16C2AccessValuePtr(ptr noundef nonnull align 8 dereferenceable(64) %0, ptr noundef %1, i64 noundef %2, i8 noundef zeroext %3, ptr noundef %4, ptr noundef nonnull align 8 dereferenceable(16) %5) unnamed_addr #1 comdat align 2 {
  %7 = alloca ptr, align 8
  %8 = alloca ptr, align 8
  %9 = alloca i64, align 8
  %10 = alloca i8, align 1
  %11 = alloca ptr, align 8
  %12 = alloca ptr, align 8
  store ptr %0, ptr %7, align 8
  store ptr %1, ptr %8, align 8
  store i64 %2, ptr %9, align 8
  store i8 %3, ptr %10, align 1
  store ptr %4, ptr %11, align 8
  store ptr %5, ptr %12, align 8
  %13 = load ptr, ptr %7, align 8
  %14 = load i64, ptr %9, align 8
  %15 = load i8, ptr %10, align 1
  %16 = load ptr, ptr %11, align 8
  %17 = load ptr, ptr %12, align 8
  call void @_ZN8C2AccessC2Em9BasicTypeP4NodeR16C2AccessValuePtr(ptr noundef nonnull align 8 dereferenceable(49) %13, i64 noundef %14, i8 noundef zeroext %15, ptr noundef %16, ptr noundef nonnull align 8 dereferenceable(16) %17)
  store ptr getelementptr inbounds inrange(-16, 32) ({ [6 x ptr] }, ptr @_ZTV13C2ParseAccess, i32 0, i32 0, i32 2), ptr %13, align 8
  %18 = getelementptr inbounds %class.C2ParseAccess, ptr %13, i32 0, i32 1
  %19 = load ptr, ptr %8, align 8
  store ptr %19, ptr %18, align 8
  call void @_ZN8C2Access16fixup_decoratorsEv(ptr noundef nonnull align 8 dereferenceable(49) %13)
  ret void
}

; Function Attrs: mustprogress nounwind uwtable
define linkonce_odr hidden void @_ZN16C2AccessValuePtrC2EP4NodePK7TypePtr(ptr noundef nonnull align 8 dereferenceable(16) %0, ptr noundef %1, ptr noundef %2) unnamed_addr #1 comdat align 2 {
  %4 = alloca ptr, align 8
  %5 = alloca ptr, align 8
  %6 = alloca ptr, align 8
  store ptr %0, ptr %4, align 8
  store ptr %1, ptr %5, align 8
  store ptr %2, ptr %6, align 8
  %7 = load ptr, ptr %4, align 8
  %8 = load ptr, ptr %5, align 8
  %9 = load ptr, ptr %6, align 8
  call void @_ZN13C2AccessValueC2EP4NodePK4Type(ptr noundef nonnull align 8 dereferenceable(16) %7, ptr noundef %8, ptr noundef %9)
  ret void
}

; Function Attrs: mustprogress nounwind uwtable
define linkonce_odr hidden noundef ptr @_ZNK8GraphKit3topEv(ptr noundef nonnull align 8 dereferenceable(84) %0) #1 comdat align 2 {
  %2 = alloca ptr, align 8
  store ptr %0, ptr %2, align 8
  %3 = load ptr, ptr %2, align 8
  %4 = getelementptr inbounds i8, ptr %3, i64 8
  %5 = getelementptr inbounds %class.Phase, ptr %4, i32 0, i32 1
  %6 = load ptr, ptr %5, align 8
  %7 = call noundef ptr @_ZNK7Compile3topEv(ptr noundef nonnull align 8 dereferenceable(2316) %6)
  ret ptr %7
}

; Function Attrs: mustprogress nounwind uwtable
define hidden noundef zeroext i1 @_ZN8GraphKit7stoppedEv(ptr noundef nonnull align 8 dereferenceable(84) %0) #1 align 2 {
  %2 = alloca i1, align 1
  %3 = alloca ptr, align 8
  store ptr %0, ptr %3, align 8
  %4 = load ptr, ptr %3, align 8
  %5 = call noundef ptr @_ZNK8GraphKit3mapEv(ptr noundef nonnull align 8 dereferenceable(84) %4)
  %6 = icmp eq ptr %5, null
  br i1 %6, label %7, label %8

7:                                                ; preds = %1
  store i1 true, ptr %2, align 1
  br label %14

8:                                                ; preds = %1
  %9 = call noundef ptr @_ZNK8GraphKit7controlEv(ptr noundef nonnull align 8 dereferenceable(84) %4)
  %10 = call noundef ptr @_ZNK8GraphKit3topEv(ptr noundef nonnull align 8 dereferenceable(84) %4)
  %11 = icmp eq ptr %9, %10
  br i1 %11, label %12, label %13

12:                                               ; preds = %8
  store i1 true, ptr %2, align 1
  br label %14

13:                                               ; preds = %8
  store i1 false, ptr %2, align 1
  br label %14

14:                                               ; preds = %13, %12, %7
  %15 = load i1, ptr %2, align 1
  ret i1 %15
}

; Function Attrs: mustprogress nounwind uwtable
define hidden noundef ptr @_ZN8GraphKit14access_load_atEP4NodeS1_PK7TypePtrPK4Type9BasicTypem(ptr noundef nonnull align 8 dereferenceable(84) %0, ptr noundef %1, ptr noundef %2, ptr noundef %3, ptr noundef %4, i8 noundef zeroext %5, i64 noundef %6) #1 align 2 {
  %8 = alloca ptr, align 8
  %9 = alloca ptr, align 8
  %10 = alloca ptr, align 8
  %11 = alloca ptr, align 8
  %12 = alloca ptr, align 8
  %13 = alloca ptr, align 8
  %14 = alloca i8, align 1
  %15 = alloca i64, align 8
  %16 = alloca %class.C2AccessValuePtr, align 8
  %17 = alloca %class.C2ParseAccess, align 8
  store ptr %0, ptr %9, align 8
  store ptr %1, ptr %10, align 8
  store ptr %2, ptr %11, align 8
  store ptr %3, ptr %12, align 8
  store ptr %4, ptr %13, align 8
  store i8 %5, ptr %14, align 1
  store i64 %6, ptr %15, align 8
  %18 = load ptr, ptr %9, align 8
  %19 = call noundef zeroext i1 @_ZN8GraphKit7stoppedEv(ptr noundef nonnull align 8 dereferenceable(84) %18)
  br i1 %19, label %20, label %22

20:                                               ; preds = %7
  %21 = call noundef ptr @_ZNK8GraphKit3topEv(ptr noundef nonnull align 8 dereferenceable(84) %18)
  store ptr %21, ptr %8, align 8
  br label %43

22:                                               ; preds = %7
  %23 = load ptr, ptr %11, align 8
  %24 = load ptr, ptr %12, align 8
  call void @_ZN16C2AccessValuePtrC2EP4NodePK7TypePtr(ptr noundef nonnull align 8 dereferenceable(16) %16, ptr noundef %23, ptr noundef %24)
  %25 = load i64, ptr %15, align 8
  %26 = or i64 %25, 274877906944
  %27 = load i8, ptr %14, align 1
  %28 = load ptr, ptr %10, align 8
  call void @_ZN13C2ParseAccessC2EP8GraphKitm9BasicTypeP4NodeR16C2AccessValuePtr(ptr noundef nonnull align 8 dereferenceable(64) %17, ptr noundef %18, i64 noundef %26, i8 noundef zeroext %27, ptr noundef %28, ptr noundef nonnull align 8 dereferenceable(16) %16)
  %29 = call noundef zeroext i1 @_ZNK8C2Access6is_rawEv(ptr noundef nonnull align 8 dereferenceable(49) %17)
  br i1 %29, label %30, label %35

30:                                               ; preds = %22
  %31 = getelementptr inbounds %class.GraphKit, ptr %18, i32 0, i32 9
  %32 = load ptr, ptr %31, align 8
  %33 = load ptr, ptr %13, align 8
  %34 = call noundef ptr @_ZNK12BarrierSetC27load_atER8C2AccessPK4Type(ptr noundef nonnull align 8 dereferenceable(8) %32, ptr noundef nonnull align 8 dereferenceable(49) %17, ptr noundef %33)
  store ptr %34, ptr %8, align 8
  br label %43

35:                                               ; preds = %22
  %36 = getelementptr inbounds %class.GraphKit, ptr %18, i32 0, i32 9
  %37 = load ptr, ptr %36, align 8
  %38 = load ptr, ptr %13, align 8
  %39 = load ptr, ptr %37, align 8
  %40 = getelementptr inbounds ptr, ptr %39, i64 8
  %41 = load ptr, ptr %40, align 8
  %42 = call noundef ptr %41(ptr noundef nonnull align 8 dereferenceable(8) %37, ptr noundef nonnull align 8 dereferenceable(49) %17, ptr noundef %38)
  store ptr %42, ptr %8, align 8
  br label %43

43:                                               ; preds = %35, %30, %20
  %44 = load ptr, ptr %8, align 8
  ret ptr %44
}

; Function Attrs: mustprogress nounwind uwtable
define linkonce_odr hidden noundef ptr @_ZNK10TypeAryPtr4sizeEv(ptr noundef nonnull align 8 dereferenceable(89) %0) #1 comdat align 2 {
  %2 = alloca ptr, align 8
  store ptr %0, ptr %2, align 8
  %3 = load ptr, ptr %2, align 8
  %4 = getelementptr inbounds %class.TypeAryPtr, ptr %3, i32 0, i32 1
  %5 = load ptr, ptr %4, align 8
  %6 = getelementptr inbounds %class.TypeAry, ptr %5, i32 0, i32 3
  %7 = load ptr, ptr %6, align 8
  ret ptr %7
}

; Function Attrs: mustprogress nounwind uwtable
define linkonce_odr hidden noundef ptr @_ZNK10TypeAryPtr4elemEv(ptr noundef nonnull align 8 dereferenceable(89) %0) #1 comdat align 2 {
  %2 = alloca ptr, align 8
  store ptr %0, ptr %2, align 8
  %3 = load ptr, ptr %2, align 8
  %4 = getelementptr inbounds %class.TypeAryPtr, ptr %3, i32 0, i32 1
  %5 = load ptr, ptr %4, align 8
  %6 = getelementptr inbounds %class.TypeAry, ptr %5, i32 0, i32 2
  %7 = load ptr, ptr %6, align 8
  ret ptr %7
}

; Function Attrs: mustprogress nounwind uwtable
define hidden noundef ptr @_ZN8GraphKit18load_array_elementEP4NodeS1_PK10TypeAryPtrb(ptr noundef nonnull align 8 dereferenceable(84) %0, ptr noundef %1, ptr noundef %2, ptr noundef %3, i1 noundef zeroext %4) #1 align 2 {
  %6 = alloca ptr, align 8
  %7 = alloca ptr, align 8
  %8 = alloca ptr, align 8
  %9 = alloca ptr, align 8
  %10 = alloca i8, align 1
  %11 = alloca ptr, align 8
  %12 = alloca i8, align 1
  %13 = alloca ptr, align 8
  %14 = alloca ptr, align 8
  store ptr %0, ptr %6, align 8
  store ptr %1, ptr %7, align 8
  store ptr %2, ptr %8, align 8
  store ptr %3, ptr %9, align 8
  %15 = zext i1 %4 to i8
  store i8 %15, ptr %10, align 1
  %16 = load ptr, ptr %6, align 8
  %17 = load ptr, ptr %9, align 8
  %18 = call noundef ptr @_ZNK10TypeAryPtr4elemEv(ptr noundef nonnull align 8 dereferenceable(89) %17)
  store ptr %18, ptr %11, align 8
  %19 = load ptr, ptr %11, align 8
  %20 = call noundef zeroext i8 @_ZNK4Type24array_element_basic_typeEv(ptr noundef nonnull align 8 dereferenceable(20) %19)
  store i8 %20, ptr %12, align 1
  %21 = load ptr, ptr %7, align 8
  %22 = load ptr, ptr %8, align 8
  %23 = load i8, ptr %12, align 1
  %24 = load ptr, ptr %9, align 8
  %25 = call noundef ptr @_ZNK10TypeAryPtr4sizeEv(ptr noundef nonnull align 8 dereferenceable(89) %24)
  %26 = call noundef ptr @_ZN8GraphKit21array_element_addressEP4NodeS1_9BasicTypePK7TypeIntS1_(ptr noundef nonnull align 8 dereferenceable(84) %16, ptr noundef %21, ptr noundef %22, i8 noundef zeroext %23, ptr noundef %25, ptr noundef null)
  store ptr %26, ptr %13, align 8
  %27 = load i8, ptr %12, align 1
  %28 = zext i8 %27 to i32
  %29 = icmp eq i32 %28, 16
  br i1 %29, label %30, label %31

30:                                               ; preds = %5
  store i8 12, ptr %12, align 1
  br label %31

31:                                               ; preds = %30, %5
  %32 = load ptr, ptr %7, align 8
  %33 = load ptr, ptr %13, align 8
  %34 = load ptr, ptr %9, align 8
  %35 = load ptr, ptr %11, align 8
  %36 = load i8, ptr %12, align 1
  %37 = load i8, ptr %10, align 1
  %38 = trunc i8 %37 to i1
  %39 = select i1 %38, i64 17179869184, i64 0
  %40 = or i64 2359296, %39
  %41 = call noundef ptr @_ZN8GraphKit14access_load_atEP4NodeS1_PK7TypePtrPK4Type9BasicTypem(ptr noundef nonnull align 8 dereferenceable(84) %16, ptr noundef %32, ptr noundef %33, ptr noundef %34, ptr noundef %35, i8 noundef zeroext %36, i64 noundef %40)
  store ptr %41, ptr %14, align 8
  %42 = load ptr, ptr %14, align 8
  ret ptr %42
}