; Function Attrs: mustprogress nounwind uwtable
define hidden noundef ptr @_ZN8GraphKit18load_array_elementEP4NodeS1_PK10TypeAryPtrb(ptr noundef nonnull align 8 dereferenceable(84) %0, ptr noundef %1, ptr noundef %2, ptr noundef %3, i1 noundef zeroext %4) local_unnamed_addr #0 align 2 {
  %6 = alloca %class.C2AccessValuePtr, align 8
  %7 = alloca %class.C2ParseAccess, align 8
  %8 = getelementptr inbounds i8, ptr %3, i64 80
  %9 = load ptr, ptr %8, align 8
  %10 = getelementptr inbounds i8, ptr %9, i64 24
  %11 = load ptr, ptr %10, align 8
  %12 = tail call noundef zeroext i8 @_ZNK4Type24array_element_basic_typeEv(ptr noundef nonnull align 8 dereferenceable(20) %11) #13
  %13 = load ptr, ptr %8, align 8
  %14 = getelementptr inbounds i8, ptr %13, i64 32
  %15 = load ptr, ptr %14, align 8
  %16 = tail call noundef ptr @_ZN8GraphKit21array_element_addressEP4NodeS1_9BasicTypePK7TypeIntS1_(ptr noundef nonnull align 8 dereferenceable(84) %0, ptr noundef %1, ptr noundef %2, i8 noundef zeroext %12, ptr noundef %15, ptr noundef null)
  %17 = icmp eq i8 %12, 16
  %spec.store.select = select i1 %17, i8 12, i8 %12
  call void @llvm.lifetime.start.p0(i64 16, ptr nonnull %6)
  call void @llvm.lifetime.start.p0(i64 64, ptr nonnull %7)
  %18 = getelementptr inbounds i8, ptr %0, i64 40
  %19 = load ptr, ptr %18, align 8
  %20 = icmp eq ptr %19, null
  br i1 %20, label %._ZN8GraphKit7stoppedEv.exit.thread_crit_edge.i, label %_ZN8GraphKit7stoppedEv.exit.i

._ZN8GraphKit7stoppedEv.exit.thread_crit_edge.i:  ; preds = %5
  %.phi.trans.insert.i = getelementptr inbounds i8, ptr %0, i64 16
  %.pre.i = load ptr, ptr %.phi.trans.insert.i, align 8
  %.phi.trans.insert9.i = getelementptr inbounds i8, ptr %.pre.i, i64 744
  %.pre10.i = load ptr, ptr %.phi.trans.insert9.i, align 8
  br label %_ZN8GraphKit14access_load_atEP4NodeS1_PK7TypePtrPK4Type9BasicTypem.exit

_ZN8GraphKit7stoppedEv.exit.i:                    ; preds = %5
  %21 = getelementptr inbounds i8, ptr %19, i64 8
  %22 = load ptr, ptr %21, align 8
  %23 = load ptr, ptr %22, align 8
  %24 = getelementptr inbounds i8, ptr %0, i64 16
  %25 = load ptr, ptr %24, align 8
  %26 = getelementptr inbounds i8, ptr %25, i64 744
  %27 = load ptr, ptr %26, align 8
  %28 = icmp eq ptr %23, %27
  br i1 %28, label %_ZN8GraphKit14access_load_atEP4NodeS1_PK7TypePtrPK4Type9BasicTypem.exit, label %29

29:                                               ; preds = %_ZN8GraphKit7stoppedEv.exit.i
  store ptr %16, ptr %6, align 8
  %30 = getelementptr inbounds i8, ptr %6, i64 8
  store ptr %3, ptr %30, align 8
  %31 = select i1 %4, i64 292060135424, i64 274880266240
  %32 = getelementptr inbounds i8, ptr %7, i64 8
  store i64 %31, ptr %32, align 8
  %33 = getelementptr inbounds i8, ptr %7, i64 16
  store i8 %spec.store.select, ptr %33, align 8
  %34 = getelementptr inbounds i8, ptr %7, i64 24
  store ptr %1, ptr %34, align 8
  %35 = getelementptr inbounds i8, ptr %7, i64 32
  store ptr %6, ptr %35, align 8
  %36 = getelementptr inbounds i8, ptr %7, i64 40
  store ptr null, ptr %36, align 8
  %37 = getelementptr inbounds i8, ptr %7, i64 48
  store i8 0, ptr %37, align 8
  store ptr getelementptr inbounds inrange(-16, 32) (i8, ptr @_ZTV13C2ParseAccess, i64 16), ptr %7, align 8
  %38 = getelementptr inbounds i8, ptr %7, i64 56
  store ptr %0, ptr %38, align 8
  call void @_ZN8C2Access16fixup_decoratorsEv(ptr noundef nonnull align 8 dereferenceable(49) %7) #13
  %39 = load i64, ptr %32, align 8
  %40 = and i64 %39, 2048
  %.not.i = icmp eq i64 %40, 0
  %41 = getelementptr inbounds i8, ptr %0, i64 72
  %42 = load ptr, ptr %41, align 8
  br i1 %.not.i, label %45, label %43

43:                                               ; preds = %29
  %44 = call noundef ptr @_ZNK12BarrierSetC27load_atER8C2AccessPK4Type(ptr noundef nonnull align 8 dereferenceable(8) %42, ptr noundef nonnull align 8 dereferenceable(49) %7, ptr noundef nonnull %11) #13
  br label %_ZN8GraphKit14access_load_atEP4NodeS1_PK7TypePtrPK4Type9BasicTypem.exit

45:                                               ; preds = %29
  %46 = load ptr, ptr %42, align 8
  %47 = getelementptr inbounds i8, ptr %46, i64 64
  %48 = load ptr, ptr %47, align 8
  %49 = call noundef ptr %48(ptr noundef nonnull align 8 dereferenceable(8) %42, ptr noundef nonnull align 8 dereferenceable(49) %7, ptr noundef nonnull %11) #13
  br label %_ZN8GraphKit14access_load_atEP4NodeS1_PK7TypePtrPK4Type9BasicTypem.exit

_ZN8GraphKit14access_load_atEP4NodeS1_PK7TypePtrPK4Type9BasicTypem.exit: ; preds = %._ZN8GraphKit7stoppedEv.exit.thread_crit_edge.i, %_ZN8GraphKit7stoppedEv.exit.i, %43, %45
  %.0.i = phi ptr [ %44, %43 ], [ %49, %45 ], [ %.pre10.i, %._ZN8GraphKit7stoppedEv.exit.thread_crit_edge.i ], [ %27, %_ZN8GraphKit7stoppedEv.exit.i ]
  call void @llvm.lifetime.end.p0(i64 16, ptr nonnull %6)
  call void @llvm.lifetime.end.p0(i64 64, ptr nonnull %7)
  ret ptr %.0.i
}